target datalayout = "e-m:e-p270:32:32-p271:32:32-p272:64:64-i64:64-i128:128-f80:128-n8:16:32:64-S128"
target triple = "x86_64-pc-linux-gnu"

%class.ThreadsList = type { i32, i32, ptr, ptr, i64 }

@_ZN11ThreadsListC1Ei = hidden unnamed_addr alias void (ptr, i32), ptr @_ZN11ThreadsListC2Ei

; Function Attrs: mustprogress nounwind uwtable
define linkonce_odr hidden void @_ZN4Copy17pd_disjoint_wordsEPKP12HeapWordImplPS1_m(ptr noundef %0, ptr noundef %1, i64 noundef %2) #1 comdat align 2 {
  %4 = alloca ptr, align 8
  %5 = alloca ptr, align 8
  %6 = alloca i64, align 8
  store ptr %0, ptr %4, align 8
  store ptr %1, ptr %5, align 8
  store i64 %2, ptr %6, align 8
  %7 = load i64, ptr %6, align 8
  switch i64 %7, label %57 [
    i64 8, label %8
    i64 7, label %14
    i64 6, label %20
    i64 5, label %26
    i64 4, label %32
    i64 3, label %38
    i64 2, label %44
    i64 1, label %50
    i64 0, label %56
  ]

8:                                                ; preds = %3
  %9 = load ptr, ptr %4, align 8
  %10 = getelementptr inbounds ptr, ptr %9, i64 7
  %11 = load ptr, ptr %10, align 8
  %12 = load ptr, ptr %5, align 8
  %13 = getelementptr inbounds ptr, ptr %12, i64 7
  store ptr %11, ptr %13, align 8
  br label %14

14:                                               ; preds = %8, %3
  %15 = load ptr, ptr %4, align 8
  %16 = getelementptr inbounds ptr, ptr %15, i64 6
  %17 = load ptr, ptr %16, align 8
  %18 = load ptr, ptr %5, align 8
  %19 = getelementptr inbounds ptr, ptr %18, i64 6
  store ptr %17, ptr %19, align 8
  br label %20

20:                                               ; preds = %14, %3
  %21 = load ptr, ptr %4, align 8
  %22 = getelementptr inbounds ptr, ptr %21, i64 5
  %23 = load ptr, ptr %22, align 8
  %24 = load ptr, ptr %5, align 8
  %25 = getelementptr inbounds ptr, ptr %24, i64 5
  store ptr %23, ptr %25, align 8
  br label %26

26:                                               ; preds = %20, %3
  %27 = load ptr, ptr %4, align 8
  %28 = getelementptr inbounds ptr, ptr %27, i64 4
  %29 = load ptr, ptr %28, align 8
  %30 = load ptr, ptr %5, align 8
  %31 = getelementptr inbounds ptr, ptr %30, i64 4
  store ptr %29, ptr %31, align 8
  br label %32

32:                                               ; preds = %26, %3
  %33 = load ptr, ptr %4, align 8
  %34 = getelementptr inbounds ptr, ptr %33, i64 3
  %35 = load ptr, ptr %34, align 8
  %36 = load ptr, ptr %5, align 8
  %37 = getelementptr inbounds ptr, ptr %36, i64 3
  store ptr %35, ptr %37, align 8
  br label %38

38:                                               ; preds = %32, %3
  %39 = load ptr, ptr %4, align 8
  %40 = getelementptr inbounds ptr, ptr %39, i64 2
  %41 = load ptr, ptr %40, align 8
  %42 = load ptr, ptr %5, align 8
  %43 = getelementptr inbounds ptr, ptr %42, i64 2
  store ptr %41, ptr %43, align 8
  br label %44

44:                                               ; preds = %38, %3
  %45 = load ptr, ptr %4, align 8
  %46 = getelementptr inbounds ptr, ptr %45, i64 1
  %47 = load ptr, ptr %46, align 8
  %48 = load ptr, ptr %5, align 8
  %49 = getelementptr inbounds ptr, ptr %48, i64 1
  store ptr %47, ptr %49, align 8
  br label %50

50:                                               ; preds = %44, %3
  %51 = load ptr, ptr %4, align 8
  %52 = getelementptr inbounds ptr, ptr %51, i64 0
  %53 = load ptr, ptr %52, align 8
  %54 = load ptr, ptr %5, align 8
  %55 = getelementptr inbounds ptr, ptr %54, i64 0
  store ptr %53, ptr %55, align 8
  br label %56

56:                                               ; preds = %50, %3
  br label %62

57:                                               ; preds = %3
  %58 = load ptr, ptr %5, align 8
  %59 = load ptr, ptr %4, align 8
  %60 = load i64, ptr %6, align 8
  %61 = mul i64 %60, 8
  call void @llvm.memcpy.p0.p0.i64(ptr align 8 %58, ptr align 8 %59, i64 %61, i1 false)
  br label %62

62:                                               ; preds = %57, %56
  ret void
}

; Function Attrs: mustprogress nounwind uwtable
define linkonce_odr hidden void @_ZN4Copy15assert_disjointEPKP12HeapWordImplPS1_m(ptr noundef %0, ptr noundef %1, i64 noundef %2) #1 comdat align 2 {
  %4 = alloca ptr, align 8
  %5 = alloca ptr, align 8
  %6 = alloca i64, align 8
  store ptr %0, ptr %4, align 8
  store ptr %1, ptr %5, align 8
  store i64 %2, ptr %6, align 8
  ret void
}

; Function Attrs: mustprogress nounwind uwtable
define linkonce_odr hidden void @_ZN4Copy16assert_params_okEPKvPvl(ptr noundef %0, ptr noundef %1, i64 noundef %2) #1 comdat align 2 {
  %4 = alloca ptr, align 8
  %5 = alloca ptr, align 8
  %6 = alloca i64, align 8
  store ptr %0, ptr %4, align 8
  store ptr %1, ptr %5, align 8
  store i64 %2, ptr %6, align 8
  ret void
}

; Function Attrs: mustprogress nounwind uwtable
define linkonce_odr hidden noundef ptr @_ZNK11ThreadsList9thread_atEj(ptr noundef nonnull align 8 dereferenceable(32) %0, i32 noundef %1) #1 comdat align 2 {
  %3 = alloca ptr, align 8
  %4 = alloca i32, align 4
  store ptr %0, ptr %3, align 8
  store i32 %1, ptr %4, align 4
  %5 = load ptr, ptr %3, align 8
  %6 = getelementptr inbounds %class.ThreadsList, ptr %5, i32 0, i32 3
  %7 = load ptr, ptr %6, align 8
  %8 = load i32, ptr %4, align 4
  %9 = zext i32 %8 to i64
  %10 = getelementptr inbounds ptr, ptr %7, i64 %9
  %11 = load ptr, ptr %10, align 8
  ret ptr %11
}

; Function Attrs: mustprogress nounwind uwtable
define linkonce_odr hidden noundef i32 @_ZNK11ThreadsList6lengthEv(ptr noundef nonnull align 8 dereferenceable(32) %0) #1 comdat align 2 {
  %2 = alloca ptr, align 8
  store ptr %0, ptr %2, align 8
  %3 = load ptr, ptr %2, align 8
  %4 = getelementptr inbounds %class.ThreadsList, ptr %3, i32 0, i32 1
  %5 = load i32, ptr %4, align 4
  ret i32 %5
}

; Function Attrs: mustprogress nounwind uwtable
define linkonce_odr hidden void @_ZN4Copy14disjoint_wordsEPKP12HeapWordImplPS1_m(ptr noundef %0, ptr noundef %1, i64 noundef %2) #1 comdat align 2 {
  %4 = alloca ptr, align 8
  %5 = alloca ptr, align 8
  %6 = alloca i64, align 8
  store ptr %0, ptr %4, align 8
  store ptr %1, ptr %5, align 8
  store i64 %2, ptr %6, align 8
  %7 = load ptr, ptr %4, align 8
  %8 = load ptr, ptr %5, align 8
  call void @_ZN4Copy16assert_params_okEPKvPvl(ptr noundef %7, ptr noundef %8, i64 noundef 8)
  %9 = load ptr, ptr %4, align 8
  %10 = load ptr, ptr %5, align 8
  %11 = load i64, ptr %6, align 8
  call void @_ZN4Copy15assert_disjointEPKP12HeapWordImplPS1_m(ptr noundef %9, ptr noundef %10, i64 noundef %11)
  %12 = load ptr, ptr %4, align 8
  %13 = load ptr, ptr %5, align 8
  %14 = load i64, ptr %6, align 8
  call void @_ZN4Copy17pd_disjoint_wordsEPKP12HeapWordImplPS1_m(ptr noundef %12, ptr noundef %13, i64 noundef %14)
  ret void
}

; Function Attrs: mustprogress nounwind uwtable
define hidden noundef i32 @_ZN11ThreadsList24find_index_of_JavaThreadEP10JavaThread(ptr noundef nonnull align 8 dereferenceable(32) %0, ptr noundef %1) #1 align 2 {
  %3 = alloca i32, align 4
  %4 = alloca ptr, align 8
  %5 = alloca ptr, align 8
  %6 = alloca i32, align 4
  store ptr %0, ptr %4, align 8
  store ptr %1, ptr %5, align 8
  %7 = load ptr, ptr %4, align 8
  %8 = load ptr, ptr %5, align 8
  %9 = icmp eq ptr %8, null
  br i1 %9, label %10, label %11

10:                                               ; preds = %2
  store i32 -1, ptr %3, align 4
  br label %28

11:                                               ; preds = %2
  store i32 0, ptr %6, align 4
  br label %12

12:                                               ; preds = %24, %11
  %13 = load i32, ptr %6, align 4
  %14 = call noundef i32 @_ZNK11ThreadsList6lengthEv(ptr noundef nonnull align 8 dereferenceable(32) %7)
  %15 = icmp ult i32 %13, %14
  br i1 %15, label %16, label %27

16:                                               ; preds = %12
  %17 = load ptr, ptr %5, align 8
  %18 = load i32, ptr %6, align 4
  %19 = call noundef ptr @_ZNK11ThreadsList9thread_atEj(ptr noundef nonnull align 8 dereferenceable(32) %7, i32 noundef %18)
  %20 = icmp eq ptr %17, %19
  br i1 %20, label %21, label %23

21:                                               ; preds = %16
  %22 = load i32, ptr %6, align 4
  store i32 %22, ptr %3, align 4
  br label %28

23:                                               ; preds = %16
  br label %24

24:                                               ; preds = %23
  %25 = load i32, ptr %6, align 4
  %26 = add i32 %25, 1
  store i32 %26, ptr %6, align 4
  br label %12, !llvm.loop !8

27:                                               ; preds = %12
  store i32 -1, ptr %3, align 4
  br label %28

28:                                               ; preds = %27, %21, %10
  %29 = load i32, ptr %3, align 4
  ret i32 %29
}

; Function Attrs: mustprogress nounwind uwtable
define hidden noundef ptr @_ZN11ThreadsList13remove_threadEPS_P10JavaThread(ptr noundef %0, ptr noundef %1) #1 align 2 {
  %3 = alloca i64, align 8
  %4 = alloca i8, align 1
  %5 = alloca i64, align 8
  %6 = alloca ptr, align 8
  %7 = alloca ptr, align 8
  %8 = alloca i32, align 4
  %9 = alloca i32, align 4
  %10 = alloca i32, align 4
  %11 = alloca i32, align 4
  %12 = alloca i32, align 4
  %13 = alloca ptr, align 8
  store ptr %0, ptr %6, align 8
  store ptr %1, ptr %7, align 8
  %14 = load ptr, ptr %6, align 8
  %15 = load ptr, ptr %7, align 8
  %16 = call noundef i32 @_ZN11ThreadsList24find_index_of_JavaThreadEP10JavaThread(ptr noundef nonnull align 8 dereferenceable(32) %14, ptr noundef %15)
  store i32 %16, ptr %8, align 4
  %17 = load i32, ptr %8, align 4
  store i32 %17, ptr %9, align 4
  %18 = load ptr, ptr %6, align 8
  %19 = getelementptr inbounds %class.ThreadsList, ptr %18, i32 0, i32 1
  %20 = load i32, ptr %19, align 4
  %21 = sub i32 %20, 1
  store i32 %21, ptr %10, align 4
  %22 = load i32, ptr %9, align 4
  store i32 %22, ptr %11, align 4
  %23 = load i32, ptr %10, align 4
  %24 = load i32, ptr %9, align 4
  %25 = icmp uge i32 %23, %24
  br i1 %25, label %26, label %30

26:                                               ; preds = %2
  %27 = load i32, ptr %10, align 4
  %28 = load i32, ptr %9, align 4
  %29 = sub i32 %27, %28
  br label %31

30:                                               ; preds = %2
  br label %31

31:                                               ; preds = %30, %26
  %32 = phi i32 [ %29, %26 ], [ 0, %30 ]
  store i32 %32, ptr %12, align 4
  store i64 32, ptr %5, align 8
  %33 = load i64, ptr %5, align 8
  store i64 %33, ptr %3, align 8
  store i8 2, ptr %4, align 1
  %34 = load i64, ptr %3, align 8
  %35 = load i8, ptr %4, align 1
  %36 = call noundef ptr @_Z12AllocateHeapm8MEMFLAGSN17AllocFailStrategy13AllocFailEnumE(i64 noundef %34, i8 noundef zeroext %35, i32 noundef 0) #2
  %37 = load i32, ptr %10, align 4
  call void @_ZN11ThreadsListC1Ei(ptr noundef nonnull align 8 dereferenceable(32) %36, i32 noundef %37)
  store ptr %36, ptr %13, align 8
  %38 = load i32, ptr %11, align 4
  %39 = icmp ugt i32 %38, 0
  br i1 %39, label %40, label %49

40:                                               ; preds = %31
  %41 = load ptr, ptr %6, align 8
  %42 = getelementptr inbounds %class.ThreadsList, ptr %41, i32 0, i32 3
  %43 = load ptr, ptr %42, align 8
  %44 = load ptr, ptr %13, align 8
  %45 = getelementptr inbounds %class.ThreadsList, ptr %44, i32 0, i32 3
  %46 = load ptr, ptr %45, align 8
  %47 = load i32, ptr %11, align 4
  %48 = zext i32 %47 to i64
  call void @_ZN4Copy14disjoint_wordsEPKP12HeapWordImplPS1_m(ptr noundef %43, ptr noundef %46, i64 noundef %48)
  br label %49

49:                                               ; preds = %40, %31
  %50 = load i32, ptr %12, align 4
  %51 = icmp ugt i32 %50, 0
  br i1 %51, label %52, label %68

52:                                               ; preds = %49
  %53 = load ptr, ptr %6, align 8
  %54 = getelementptr inbounds %class.ThreadsList, ptr %53, i32 0, i32 3
  %55 = load ptr, ptr %54, align 8
  %56 = load i32, ptr %9, align 4
  %57 = zext i32 %56 to i64
  %58 = getelementptr inbounds ptr, ptr %55, i64 %57
  %59 = getelementptr inbounds ptr, ptr %58, i64 1
  %60 = load ptr, ptr %13, align 8
  %61 = getelementptr inbounds %class.ThreadsList, ptr %60, i32 0, i32 3
  %62 = load ptr, ptr %61, align 8
  %63 = load i32, ptr %9, align 4
  %64 = zext i32 %63 to i64
  %65 = getelementptr inbounds ptr, ptr %62, i64 %64
  %66 = load i32, ptr %12, align 4
  %67 = zext i32 %66 to i64
  call void @_ZN4Copy14disjoint_wordsEPKP12HeapWordImplPS1_m(ptr noundef %59, ptr noundef %65, i64 noundef %67)
  br label %68

68:                                               ; preds = %52, %49
  %69 = load ptr, ptr %13, align 8
  ret ptr %69
}