; Function Attrs: mustprogress nounwind uwtable
define hidden noundef ptr @_ZN11ThreadsList13remove_threadEPS_P10JavaThread(ptr nocapture noundef readonly %0, ptr noundef readnone %1) local_unnamed_addr #1 align 2 {
  %3 = icmp eq ptr %1, null
  %.phi.trans.insert = getelementptr inbounds i8, ptr %0, i64 4
  %.pre = load i32, ptr %.phi.trans.insert, align 4
  br i1 %3, label %_ZN11ThreadsList24find_index_of_JavaThreadEP10JavaThread.exit, label %.preheader.i

.preheader.i:                                     ; preds = %2
  %.not.i = icmp eq i32 %.pre, 0
  br i1 %.not.i, label %_ZN11ThreadsList24find_index_of_JavaThreadEP10JavaThread.exit, label %.lr.ph.i

.lr.ph.i:                                         ; preds = %.preheader.i
  %4 = getelementptr inbounds i8, ptr %0, i64 16
  %5 = load ptr, ptr %4, align 8
  %6 = zext i32 %.pre to i64
  br label %7

7:                                                ; preds = %11, %.lr.ph.i
  %indvars.iv = phi i64 [ %indvars.iv.next, %11 ], [ 0, %.lr.ph.i ]
  %8 = getelementptr inbounds ptr, ptr %5, i64 %indvars.iv
  %9 = load ptr, ptr %8, align 8
  %10 = icmp eq ptr %9, %1
  br i1 %10, label %_ZN11ThreadsList24find_index_of_JavaThreadEP10JavaThread.exit.loopexit.split.loop.exit27, label %11

11:                                               ; preds = %7
  %indvars.iv.next = add nuw nsw i64 %indvars.iv, 1
  %exitcond.not.i = icmp eq i64 %indvars.iv.next, %6
  br i1 %exitcond.not.i, label %_ZN11ThreadsList24find_index_of_JavaThreadEP10JavaThread.exit, label %7, !llvm.loop !12

_ZN11ThreadsList24find_index_of_JavaThreadEP10JavaThread.exit.loopexit.split.loop.exit27: ; preds = %7
  %12 = trunc nuw i64 %indvars.iv to i32
  br label %_ZN11ThreadsList24find_index_of_JavaThreadEP10JavaThread.exit

_ZN11ThreadsList24find_index_of_JavaThreadEP10JavaThread.exit: ; preds = %11, %_ZN11ThreadsList24find_index_of_JavaThreadEP10JavaThread.exit.loopexit.split.loop.exit27, %2, %.preheader.i
  %13 = phi i32 [ 0, %.preheader.i ], [ %.pre, %2 ], [ %.pre, %_ZN11ThreadsList24find_index_of_JavaThreadEP10JavaThread.exit.loopexit.split.loop.exit27 ], [ %.pre, %11 ]
  %.07.i = phi i32 [ -1, %.preheader.i ], [ -1, %2 ], [ %12, %_ZN11ThreadsList24find_index_of_JavaThreadEP10JavaThread.exit.loopexit.split.loop.exit27 ], [ -1, %11 ]
  %14 = add i32 %13, -1
  %15 = tail call i32 @llvm.usub.sat.i32(i32 %14, i32 %.07.i)
  %16 = tail call noundef ptr @_Z12AllocateHeapm8MEMFLAGSN17AllocFailStrategy13AllocFailEnumE(i64 noundef 32, i8 noundef zeroext 2, i32 noundef 0) #15
  store i32 1414288212, ptr %16, align 8
  %17 = getelementptr inbounds i8, ptr %16, i64 4
  store i32 %14, ptr %17, align 4
  %18 = getelementptr inbounds i8, ptr %16, i64 8
  store ptr null, ptr %18, align 8
  %19 = icmp eq i32 %14, 0
  br i1 %19, label %_ZN11ThreadsListC2Ei.exit, label %20

20:                                               ; preds = %_ZN11ThreadsList24find_index_of_JavaThreadEP10JavaThread.exit
  %21 = sext i32 %13 to i64
  %22 = shl nsw i64 %21, 3
  %23 = tail call noundef ptr @_Z12AllocateHeapm8MEMFLAGSN17AllocFailStrategy13AllocFailEnumE(i64 noundef %22, i8 noundef zeroext 2, i32 noundef 0) #15
  %24 = sext i32 %14 to i64
  %25 = getelementptr inbounds ptr, ptr %23, i64 %24
  store ptr null, ptr %25, align 8
  br label %_ZN11ThreadsListC2Ei.exit

_ZN11ThreadsListC2Ei.exit:                        ; preds = %_ZN11ThreadsList24find_index_of_JavaThreadEP10JavaThread.exit, %20
  %.0.i.i = phi ptr [ %23, %20 ], [ @_ZL23empty_threads_list_data, %_ZN11ThreadsList24find_index_of_JavaThreadEP10JavaThread.exit ]
  %26 = getelementptr inbounds i8, ptr %16, i64 16
  store ptr %.0.i.i, ptr %26, align 8
  %27 = getelementptr inbounds i8, ptr %16, i64 24
  store volatile i64 0, ptr %27, align 8
  %.not = icmp eq i32 %.07.i, 0
  br i1 %.not, label %_ZN4Copy14disjoint_wordsEPKP12HeapWordImplPS1_m.exit, label %28

28:                                               ; preds = %_ZN11ThreadsListC2Ei.exit
  %29 = getelementptr inbounds i8, ptr %0, i64 16
  %30 = load ptr, ptr %29, align 8
  switch i32 %.07.i, label %61 [
    i32 8, label %31
    i32 7, label %35
    i32 6, label %39
    i32 5, label %43
    i32 4, label %47
    i32 3, label %51
    i32 2, label %55
    i32 1, label %59
  ]

31:                                               ; preds = %28
  %32 = getelementptr inbounds i8, ptr %30, i64 56
  %33 = load ptr, ptr %32, align 8
  %34 = getelementptr inbounds i8, ptr %.0.i.i, i64 56
  store ptr %33, ptr %34, align 8
  br label %35

35:                                               ; preds = %31, %28
  %36 = getelementptr inbounds i8, ptr %30, i64 48
  %37 = load ptr, ptr %36, align 8
  %38 = getelementptr inbounds i8, ptr %.0.i.i, i64 48
  store ptr %37, ptr %38, align 8
  br label %39

39:                                               ; preds = %35, %28
  %40 = getelementptr inbounds i8, ptr %30, i64 40
  %41 = load ptr, ptr %40, align 8
  %42 = getelementptr inbounds i8, ptr %.0.i.i, i64 40
  store ptr %41, ptr %42, align 8
  br label %43

43:                                               ; preds = %39, %28
  %44 = getelementptr inbounds i8, ptr %30, i64 32
  %45 = load ptr, ptr %44, align 8
  %46 = getelementptr inbounds i8, ptr %.0.i.i, i64 32
  store ptr %45, ptr %46, align 8
  br label %47

47:                                               ; preds = %43, %28
  %48 = getelementptr inbounds i8, ptr %30, i64 24
  %49 = load ptr, ptr %48, align 8
  %50 = getelementptr inbounds i8, ptr %.0.i.i, i64 24
  store ptr %49, ptr %50, align 8
  br label %51

51:                                               ; preds = %47, %28
  %52 = getelementptr inbounds i8, ptr %30, i64 16
  %53 = load ptr, ptr %52, align 8
  %54 = getelementptr inbounds i8, ptr %.0.i.i, i64 16
  store ptr %53, ptr %54, align 8
  br label %55

55:                                               ; preds = %51, %28
  %56 = getelementptr inbounds i8, ptr %30, i64 8
  %57 = load ptr, ptr %56, align 8
  %58 = getelementptr inbounds i8, ptr %.0.i.i, i64 8
  store ptr %57, ptr %58, align 8
  br label %59

59:                                               ; preds = %55, %28
  %60 = load ptr, ptr %30, align 8
  store ptr %60, ptr %.0.i.i, align 8
  br label %_ZN4Copy14disjoint_wordsEPKP12HeapWordImplPS1_m.exit

61:                                               ; preds = %28
  %62 = zext i32 %.07.i to i64
  %63 = shl nuw nsw i64 %62, 3
  tail call void @llvm.memcpy.p0.p0.i64(ptr align 8 %.0.i.i, ptr align 8 %30, i64 %63, i1 false)
  br label %_ZN4Copy14disjoint_wordsEPKP12HeapWordImplPS1_m.exit

_ZN4Copy14disjoint_wordsEPKP12HeapWordImplPS1_m.exit: ; preds = %61, %59, %_ZN11ThreadsListC2Ei.exit
  %.not24.not = icmp ugt i32 %14, %.07.i
  br i1 %.not24.not, label %64, label %_ZN4Copy14disjoint_wordsEPKP12HeapWordImplPS1_m.exit25

64:                                               ; preds = %_ZN4Copy14disjoint_wordsEPKP12HeapWordImplPS1_m.exit
  %65 = getelementptr inbounds i8, ptr %0, i64 16
  %66 = load ptr, ptr %65, align 8
  %67 = zext i32 %.07.i to i64
  %68 = getelementptr inbounds ptr, ptr %66, i64 %67
  %69 = getelementptr inbounds i8, ptr %68, i64 8
  %70 = load ptr, ptr %26, align 8
  %71 = getelementptr inbounds ptr, ptr %70, i64 %67
  switch i32 %15, label %102 [
    i32 8, label %72
    i32 7, label %76
    i32 6, label %80
    i32 5, label %84
    i32 4, label %88
    i32 3, label %92
    i32 2, label %96
    i32 1, label %100
    i32 0, label %_ZN4Copy14disjoint_wordsEPKP12HeapWordImplPS1_m.exit25
  ]

72:                                               ; preds = %64
  %73 = getelementptr inbounds i8, ptr %68, i64 64
  %74 = load ptr, ptr %73, align 8
  %75 = getelementptr inbounds i8, ptr %71, i64 56
  store ptr %74, ptr %75, align 8
  br label %76

76:                                               ; preds = %72, %64
  %77 = getelementptr inbounds i8, ptr %68, i64 56
  %78 = load ptr, ptr %77, align 8
  %79 = getelementptr inbounds i8, ptr %71, i64 48
  store ptr %78, ptr %79, align 8
  br label %80

80:                                               ; preds = %76, %64
  %81 = getelementptr inbounds i8, ptr %68, i64 48
  %82 = load ptr, ptr %81, align 8
  %83 = getelementptr inbounds i8, ptr %71, i64 40
  store ptr %82, ptr %83, align 8
  br label %84

84:                                               ; preds = %80, %64
  %85 = getelementptr inbounds i8, ptr %68, i64 40
  %86 = load ptr, ptr %85, align 8
  %87 = getelementptr inbounds i8, ptr %71, i64 32
  store ptr %86, ptr %87, align 8
  br label %88

88:                                               ; preds = %84, %64
  %89 = getelementptr inbounds i8, ptr %68, i64 32
  %90 = load ptr, ptr %89, align 8
  %91 = getelementptr inbounds i8, ptr %71, i64 24
  store ptr %90, ptr %91, align 8
  br label %92

92:                                               ; preds = %88, %64
  %93 = getelementptr inbounds i8, ptr %68, i64 24
  %94 = load ptr, ptr %93, align 8
  %95 = getelementptr inbounds i8, ptr %71, i64 16
  store ptr %94, ptr %95, align 8
  br label %96

96:                                               ; preds = %92, %64
  %97 = getelementptr inbounds i8, ptr %68, i64 16
  %98 = load ptr, ptr %97, align 8
  %99 = getelementptr inbounds i8, ptr %71, i64 8
  store ptr %98, ptr %99, align 8
  br label %100

100:                                              ; preds = %96, %64
  %101 = load ptr, ptr %69, align 8
  store ptr %101, ptr %71, align 8
  br label %_ZN4Copy14disjoint_wordsEPKP12HeapWordImplPS1_m.exit25

102:                                              ; preds = %64
  %103 = zext i32 %15 to i64
  %104 = shl nuw nsw i64 %103, 3
  tail call void @llvm.memcpy.p0.p0.i64(ptr align 8 %71, ptr nonnull align 8 %69, i64 %104, i1 false)
  br label %_ZN4Copy14disjoint_wordsEPKP12HeapWordImplPS1_m.exit25

_ZN4Copy14disjoint_wordsEPKP12HeapWordImplPS1_m.exit25: ; preds = %102, %100, %64, %_ZN4Copy14disjoint_wordsEPKP12HeapWordImplPS1_m.exit
  ret ptr %16
}